target datalayout = "e-m:e-p270:32:32-p271:32:32-p272:64:64-i64:64-i128:128-f80:128-n8:16:32:64-S128"
target triple = "x86_64-pc-linux-gnu"

@.str.10 = private unnamed_addr constant [28 x i8] c"print ticket_flags (0x%02x)\00", align 1
@.str.11 = private unnamed_addr constant [13 x i8] c"- %s is set.\00", align 1
@ticket_flag_name_table = internal global [4 x ptr] [ptr @.str.143, ptr null, ptr @.str.144, ptr @.str.145], align 16

; Function Attrs: nounwind uwtable
define hidden void @mbedtls_ssl_print_ticket_flags(ptr noundef %0, i32 noundef %1, ptr noundef %2, i32 noundef %3, i32 noundef %4) #0 {
  %6 = alloca ptr, align 8
  %7 = alloca i32, align 4
  %8 = alloca ptr, align 8
  %9 = alloca i32, align 4
  %10 = alloca i32, align 4
  %11 = alloca i64, align 8
  store ptr %0, ptr %6, align 8, !tbaa !27
  store i32 %1, ptr %7, align 4, !tbaa !10
  store ptr %2, ptr %8, align 8, !tbaa !29
  store i32 %3, ptr %9, align 4, !tbaa !10
  store i32 %4, ptr %10, align 4, !tbaa !10
  call void @llvm.lifetime.start.p0(i64 8, ptr %11) #11
  %12 = load ptr, ptr %6, align 8, !tbaa !27
  %13 = load i32, ptr %7, align 4, !tbaa !10
  %14 = load ptr, ptr %8, align 8, !tbaa !29
  %15 = load i32, ptr %9, align 4, !tbaa !10
  %16 = load i32, ptr %10, align 4, !tbaa !10
  call void (ptr, i32, ptr, i32, ptr, ...) @mbedtls_debug_print_msg(ptr noundef %12, i32 noundef %13, ptr noundef %14, i32 noundef %15, ptr noundef @.str.10, i32 noundef %16)
  %17 = load i32, ptr %10, align 4, !tbaa !10
  %18 = and i32 %17, 13
  store i32 %18, ptr %10, align 4, !tbaa !10
  store i64 0, ptr %11, align 8, !tbaa !8
  br label %19

19:                                               ; preds = %38, %5
  %20 = load i64, ptr %11, align 8, !tbaa !8
  %21 = icmp ult i64 %20, 4
  br i1 %21, label %22, label %41

22:                                               ; preds = %19
  %23 = load i32, ptr %10, align 4, !tbaa !10
  %24 = load i64, ptr %11, align 8, !tbaa !8
  %25 = trunc i64 %24 to i32
  %26 = shl i32 1, %25
  %27 = and i32 %23, %26
  %28 = icmp ne i32 %27, 0
  br i1 %28, label %29, label %37

29:                                               ; preds = %22
  %30 = load ptr, ptr %6, align 8, !tbaa !27
  %31 = load i32, ptr %7, align 4, !tbaa !10
  %32 = load ptr, ptr %8, align 8, !tbaa !29
  %33 = load i32, ptr %9, align 4, !tbaa !10
  %34 = load i64, ptr %11, align 8, !tbaa !8
  %35 = getelementptr inbounds nuw [4 x ptr], ptr @ticket_flag_name_table, i64 0, i64 %34
  %36 = load ptr, ptr %35, align 8, !tbaa !29
  call void (ptr, i32, ptr, i32, ptr, ...) @mbedtls_debug_print_msg(ptr noundef %30, i32 noundef %31, ptr noundef %32, i32 noundef %33, ptr noundef @.str.11, ptr noundef %36)
  br label %37

37:                                               ; preds = %29, %22
  br label %38

38:                                               ; preds = %37
  %39 = load i64, ptr %11, align 8, !tbaa !8
  %40 = add i64 %39, 1
  store i64 %40, ptr %11, align 8, !tbaa !8
  br label %19, !llvm.loop !73

41:                                               ; preds = %19
  call void @llvm.lifetime.end.p0(i64 8, ptr %11) #11
  ret void
}