; Function Attrs: nounwind uwtable
define hidden void @mbedtls_ssl_print_ticket_flags(ptr noundef %0, i32 noundef %1, ptr noundef %2, i32 noundef %3, i32 noundef %4) local_unnamed_addr #1 {
  tail call void (ptr, i32, ptr, i32, ptr, ...) @mbedtls_debug_print_msg(ptr noundef %0, i32 noundef %1, ptr noundef %2, i32 noundef %3, ptr noundef nonnull @.str.10, i32 noundef %4) #26
  %6 = and i32 %4, 13
  br label %7

7:                                                ; preds = %5, %14
  %.014 = phi i64 [ 0, %5 ], [ %15, %14 ]
  %8 = trunc nuw nsw i64 %.014 to i32
  %9 = shl nuw nsw i32 1, %8
  %10 = and i32 %6, %9
  %.not = icmp eq i32 %10, 0
  br i1 %.not, label %14, label %11

11:                                               ; preds = %7
  %12 = getelementptr inbounds nuw [4 x ptr], ptr @ticket_flag_name_table, i64 0, i64 %.014
  %13 = load ptr, ptr %12, align 8, !tbaa !64
  tail call void (ptr, i32, ptr, i32, ptr, ...) @mbedtls_debug_print_msg(ptr noundef %0, i32 noundef %1, ptr noundef %2, i32 noundef %3, ptr noundef nonnull @.str.11, ptr noundef %13) #26
  br label %14

14:                                               ; preds = %7, %11
  %15 = add nuw nsw i64 %.014, 1
  %exitcond.not = icmp eq i64 %15, 4
  br i1 %exitcond.not, label %16, label %7, !llvm.loop !67

16:                                               ; preds = %14
  ret void
}